target datalayout = "e-m:e-p270:32:32-p271:32:32-p272:64:64-i64:64-i128:128-f80:128-n8:16:32:64-S128"
target triple = "x86_64-pc-linux-gnu"

%struct.luaL_Buffer = type { ptr, i32, ptr, [8192 x i8] }

; Function Attrs: nounwind uwtable
define internal i32 @str_lower(ptr noundef %0) #0 {
  %2 = alloca ptr, align 8
  %3 = alloca i64, align 8
  %4 = alloca i64, align 8
  %5 = alloca %struct.luaL_Buffer, align 8
  %6 = alloca ptr, align 8
  %7 = alloca i32, align 4
  %8 = alloca i32, align 4
  store ptr %0, ptr %2, align 8, !tbaa !4
  call void @llvm.lifetime.start.p0(i64 8, ptr %3) #8
  call void @llvm.lifetime.start.p0(i64 8, ptr %4) #8
  call void @llvm.lifetime.start.p0(i64 8216, ptr %5) #8
  call void @llvm.lifetime.start.p0(i64 8, ptr %6) #8
  %9 = load ptr, ptr %2, align 8, !tbaa !4
  %10 = call ptr @luaL_checklstring(ptr noundef %9, i32 noundef 1, ptr noundef %3)
  store ptr %10, ptr %6, align 8, !tbaa !9
  %11 = load ptr, ptr %2, align 8, !tbaa !4
  call void @luaL_buffinit(ptr noundef %11, ptr noundef %5)
  store i64 0, ptr %4, align 8, !tbaa !11
  br label %12

12:                                               ; preds = %42, %1
  %13 = load i64, ptr %4, align 8, !tbaa !11
  %14 = load i64, ptr %3, align 8, !tbaa !11
  %15 = icmp ult i64 %13, %14
  br i1 %15, label %16, label %45

16:                                               ; preds = %12
  %17 = getelementptr inbounds nuw %struct.luaL_Buffer, ptr %5, i32 0, i32 0
  %18 = load ptr, ptr %17, align 8, !tbaa !18
  %19 = getelementptr inbounds nuw %struct.luaL_Buffer, ptr %5, i32 0, i32 3
  %20 = getelementptr inbounds [8192 x i8], ptr %19, i64 0, i64 0
  %21 = getelementptr inbounds i8, ptr %20, i64 8192
  %22 = icmp ult ptr %18, %21
  br i1 %22, label %25, label %23

23:                                               ; preds = %16
  %24 = call ptr @luaL_prepbuffer(ptr noundef %5)
  br label %25

25:                                               ; preds = %23, %16
  call void @llvm.lifetime.start.p0(i64 4, ptr %7) #8
  %26 = call ptr @__ctype_tolower_loc() #10
  %27 = load ptr, ptr %26, align 8, !tbaa !28
  %28 = load ptr, ptr %6, align 8, !tbaa !9
  %29 = load i64, ptr %4, align 8, !tbaa !11
  %30 = getelementptr inbounds nuw i8, ptr %28, i64 %29
  %31 = load i8, ptr %30, align 1, !tbaa !15
  %32 = zext i8 %31 to i32
  %33 = sext i32 %32 to i64
  %34 = getelementptr inbounds i32, ptr %27, i64 %33
  %35 = load i32, ptr %34, align 4, !tbaa !13
  store i32 %35, ptr %7, align 4, !tbaa !13
  %36 = load i32, ptr %7, align 4, !tbaa !13
  store i32 %36, ptr %8, align 4, !tbaa !13
  call void @llvm.lifetime.end.p0(i64 4, ptr %7) #8
  %37 = load i32, ptr %8, align 4, !tbaa !13
  %38 = trunc i32 %37 to i8
  %39 = getelementptr inbounds nuw %struct.luaL_Buffer, ptr %5, i32 0, i32 0
  %40 = load ptr, ptr %39, align 8, !tbaa !18
  %41 = getelementptr inbounds nuw i8, ptr %40, i32 1
  store ptr %41, ptr %39, align 8, !tbaa !18
  store i8 %38, ptr %40, align 1, !tbaa !15
  br label %42

42:                                               ; preds = %25
  %43 = load i64, ptr %4, align 8, !tbaa !11
  %44 = add i64 %43, 1
  store i64 %44, ptr %4, align 8, !tbaa !11
  br label %12, !llvm.loop !30

45:                                               ; preds = %12
  call void @luaL_pushresult(ptr noundef %5)
  call void @llvm.lifetime.end.p0(i64 8, ptr %6) #8
  call void @llvm.lifetime.end.p0(i64 8216, ptr %5) #8
  call void @llvm.lifetime.end.p0(i64 8, ptr %4) #8
  call void @llvm.lifetime.end.p0(i64 8, ptr %3) #8
  ret i32 1
}